target datalayout = "e-m:e-p270:32:32-p271:32:32-p272:64:64-i64:64-i128:128-f80:128-n8:16:32:64-S128"
target triple = "x86_64-pc-linux-gnu"

%struct.bio_ssl_st = type { ptr, i32, i64, i64, i64, i64 }

; Function Attrs: nounwind uwtable
define internal i64 @ssl_callback_ctrl(ptr noundef %0, i32 noundef %1, ptr noundef %2) #0 {
  %4 = alloca ptr, align 8
  %5 = alloca i32, align 4
  %6 = alloca ptr, align 8
  %7 = alloca ptr, align 8
  %8 = alloca ptr, align 8
  %9 = alloca i64, align 8
  store ptr %0, ptr %4, align 8, !tbaa !8
  store i32 %1, ptr %5, align 4, !tbaa !47
  store ptr %2, ptr %6, align 8, !tbaa !64
  call void @llvm.lifetime.start.p0(i64 8, ptr %7) #5
  call void @llvm.lifetime.start.p0(i64 8, ptr %8) #5
  call void @llvm.lifetime.start.p0(i64 8, ptr %9) #5
  store i64 1, ptr %9, align 8, !tbaa !57
  %10 = load ptr, ptr %4, align 8, !tbaa !8
  %11 = call ptr @BIO_get_data(ptr noundef %10)
  store ptr %11, ptr %8, align 8, !tbaa !50
  %12 = load ptr, ptr %8, align 8, !tbaa !50
  %13 = getelementptr inbounds nuw %struct.bio_ssl_st, ptr %12, i32 0, i32 0
  %14 = load ptr, ptr %13, align 8, !tbaa !52
  store ptr %14, ptr %7, align 8, !tbaa !48
  %15 = load i32, ptr %5, align 4, !tbaa !47
  switch i32 %15, label %22 [
    i32 14, label %16
  ]

16:                                               ; preds = %3
  %17 = load ptr, ptr %7, align 8, !tbaa !48
  %18 = call ptr @SSL_get_rbio(ptr noundef %17)
  %19 = load i32, ptr %5, align 4, !tbaa !47
  %20 = load ptr, ptr %6, align 8, !tbaa !64
  %21 = call i64 @BIO_callback_ctrl(ptr noundef %18, i32 noundef %19, ptr noundef %20)
  store i64 %21, ptr %9, align 8, !tbaa !57
  br label %23

22:                                               ; preds = %3
  store i64 0, ptr %9, align 8, !tbaa !57
  br label %23

23:                                               ; preds = %22, %16
  %24 = load i64, ptr %9, align 8, !tbaa !57
  call void @llvm.lifetime.end.p0(i64 8, ptr %9) #5
  call void @llvm.lifetime.end.p0(i64 8, ptr %8) #5
  call void @llvm.lifetime.end.p0(i64 8, ptr %7) #5
  ret i64 %24
}