; Function Attrs: nounwind uwtable
define internal i64 @ssl_callback_ctrl(ptr noundef %0, i32 noundef %1, ptr noundef %2) #1 {
  %4 = tail call ptr @BIO_get_data(ptr noundef %0) #5
  %cond = icmp eq i32 %1, 14
  br i1 %cond, label %5, label %9

5:                                                ; preds = %3
  %6 = load ptr, ptr %4, align 8, !tbaa !43
  %7 = tail call ptr @SSL_get_rbio(ptr noundef %6) #5
  %8 = tail call i64 @BIO_callback_ctrl(ptr noundef %7, i32 noundef 14, ptr noundef %2) #5
  br label %9

9:                                                ; preds = %3, %5
  %.0 = phi i64 [ %8, %5 ], [ 0, %3 ]
  ret i64 %.0
}